target datalayout = "e-m:e-p270:32:32-p271:32:32-p272:64:64-i64:64-i128:128-f80:128-n8:16:32:64-S128"
target triple = "x86_64-pc-linux-gnu"

%struct.wtap = type { ptr, ptr, i8, i32, i32, ptr, ptr, ptr, i32, ptr, ptr, ptr, ptr, ptr, ptr, ptr, ptr, ptr, ptr, i32, i32, ptr, ptr, ptr, ptr }
%struct.iseries_t = type { i8, i32, i32, i32, i32 }

@.str.2 = private unnamed_addr constant [35 x i8] c"%*[ \0A\09]OBJECT PROTOCOL%*[ .:\0A\09]%8s\00", align 1
@.str.3 = private unnamed_addr constant [9 x i8] c"ETHERNET\00", align 1
@.str.4 = private unnamed_addr constant [43 x i8] c"%*[ \0A\09]START DATE/TIME%*[ .:\0A\09]%2d/%2d/%2d\00", align 1

; Function Attrs: nounwind null_pointer_is_valid sspstrong uwtable
define internal i32 @iseries_UNICODE_to_ASCII(ptr noundef %0, i32 noundef %1) #8 {
  %3 = alloca ptr, align 8
  %4 = alloca i32, align 4
  %5 = alloca i32, align 4
  %6 = alloca ptr, align 8
  store ptr %0, ptr %3, align 8
  store i32 %1, ptr %4, align 4
  call void @llvm.lifetime.start.p0(i64 4, ptr %5) #13
  call void @llvm.lifetime.start.p0(i64 8, ptr %6) #13
  %7 = load ptr, ptr %3, align 8
  store ptr %7, ptr %6, align 8
  store i32 0, ptr %5, align 4
  br label %8

8:                                                ; preds = %39, %2
  %9 = load i32, ptr %5, align 4
  %10 = load i32, ptr %4, align 4
  %11 = icmp ult i32 %9, %10
  br i1 %11, label %12, label %42

12:                                               ; preds = %8
  %13 = load ptr, ptr %3, align 8
  %14 = load i32, ptr %5, align 4
  %15 = zext i32 %14 to i64
  %16 = getelementptr i8, ptr %13, i64 %15
  %17 = load i8, ptr %16, align 1
  %18 = zext i8 %17 to i32
  switch i32 %18, label %20 [
    i32 254, label %19
    i32 255, label %19
    i32 0, label %19
  ]

19:                                               ; preds = %12, %12, %12
  br label %29

20:                                               ; preds = %12
  %21 = load ptr, ptr %3, align 8
  %22 = load i32, ptr %5, align 4
  %23 = zext i32 %22 to i64
  %24 = getelementptr i8, ptr %21, i64 %23
  %25 = load i8, ptr %24, align 1
  %26 = load ptr, ptr %6, align 8
  store i8 %25, ptr %26, align 1
  %27 = load ptr, ptr %6, align 8
  %28 = getelementptr i8, ptr %27, i32 1
  store ptr %28, ptr %6, align 8
  br label %29

29:                                               ; preds = %20, %19
  %30 = load ptr, ptr %3, align 8
  %31 = load i32, ptr %5, align 4
  %32 = zext i32 %31 to i64
  %33 = getelementptr i8, ptr %30, i64 %32
  %34 = load i8, ptr %33, align 1
  %35 = zext i8 %34 to i32
  %36 = icmp eq i32 %35, 10
  br i1 %36, label %37, label %38

37:                                               ; preds = %29
  br label %42

38:                                               ; preds = %29
  br label %39

39:                                               ; preds = %38
  %40 = load i32, ptr %5, align 4
  %41 = add i32 %40, 1
  store i32 %41, ptr %5, align 4
  br label %8, !llvm.loop !12

42:                                               ; preds = %37, %8
  br label %43

43:                                               ; preds = %42
  br label %44

44:                                               ; preds = %43
  br label %45

45:                                               ; preds = %44
  %46 = load ptr, ptr %6, align 8
  store i8 0, ptr %46, align 1
  %47 = load i32, ptr %5, align 4
  call void @llvm.lifetime.end.p0(i64 8, ptr %6) #13
  call void @llvm.lifetime.end.p0(i64 4, ptr %5) #13
  ret i32 %47
}

; Function Attrs: alwaysinline nounwind
define internal ptr @memset.inline(ptr %0, i32 %1, i64 %2) #7 {
  %4 = alloca ptr, align 8
  %5 = alloca i32, align 4
  %6 = alloca i64, align 8
  store ptr %0, ptr %4, align 8
  store i32 %1, ptr %5, align 4
  store i64 %2, ptr %6, align 8
  %7 = load ptr, ptr %4, align 8
  %8 = load i32, ptr %5, align 4
  %9 = load i64, ptr %6, align 8
  %10 = load ptr, ptr %4, align 8
  %11 = call i64 @llvm.objectsize.i64.p0(ptr %10, i1 false, i1 true, i1 true)
  %12 = call ptr @__memset_chk(ptr noundef %7, i32 noundef %8, i64 noundef %9, i64 noundef %11) #13
  ret ptr %12
}

; Function Attrs: null_pointer_is_valid sspstrong uwtable
define internal zeroext i1 @iseries_check_file_type(ptr noundef %0, ptr noundef %1, ptr noundef %2, i32 noundef %3) #0 {
  %5 = alloca ptr, align 8
  %6 = alloca ptr, align 8
  %7 = alloca ptr, align 8
  %8 = alloca i32, align 4
  %9 = alloca i8, align 1
  %10 = alloca i32, align 4
  %11 = alloca i32, align 4
  %12 = alloca [270 x i8], align 16
  %13 = alloca [9 x i8], align 1
  %14 = alloca ptr, align 8
  %15 = alloca i64, align 8
  %16 = alloca i64, align 8
  %17 = alloca ptr, align 8
  %18 = alloca ptr, align 8
  store ptr %0, ptr %5, align 8
  store ptr %1, ptr %6, align 8
  store ptr %2, ptr %7, align 8
  store i32 %3, ptr %8, align 4
  call void @llvm.lifetime.start.p0(i64 1, ptr %9) #13
  store i8 0, ptr %9, align 1
  call void @llvm.lifetime.start.p0(i64 4, ptr %10) #13
  call void @llvm.lifetime.start.p0(i64 4, ptr %11) #13
  call void @llvm.lifetime.start.p0(i64 270, ptr %12) #13
  call void @llvm.lifetime.start.p0(i64 9, ptr %13) #13
  call void @llvm.lifetime.start.p0(i64 8, ptr %14) #13
  call void @llvm.lifetime.start.p0(i64 8, ptr %15) #13
  store i64 1, ptr %15, align 8
  call void @llvm.lifetime.start.p0(i64 8, ptr %16) #13
  store i64 20, ptr %16, align 8
  call void @llvm.lifetime.start.p0(i64 8, ptr %17) #13
  %19 = load i64, ptr %16, align 8
  %20 = icmp eq i64 %19, 1
  br i1 %20, label %21, label %24

21:                                               ; preds = %4
  %22 = load i64, ptr %15, align 8
  %23 = call noalias ptr @g_malloc(i64 noundef %22) #15
  store ptr %23, ptr %17, align 8
  br label %45

24:                                               ; preds = %4
  %25 = load i64, ptr %15, align 8
  %26 = call i1 @llvm.is.constant.i64(i64 %25)
  br i1 %26, label %27, label %40

27:                                               ; preds = %24
  %28 = load i64, ptr %16, align 8
  %29 = icmp eq i64 %28, 0
  br i1 %29, label %35, label %30

30:                                               ; preds = %27
  %31 = load i64, ptr %15, align 8
  %32 = load i64, ptr %16, align 8
  %33 = udiv i64 -1, %32
  %34 = icmp ule i64 %31, %33
  br i1 %34, label %35, label %40

35:                                               ; preds = %30, %27
  %36 = load i64, ptr %15, align 8
  %37 = load i64, ptr %16, align 8
  %38 = mul i64 %36, %37
  %39 = call noalias ptr @g_malloc(i64 noundef %38) #15
  store ptr %39, ptr %17, align 8
  br label %44

40:                                               ; preds = %30, %24
  %41 = load i64, ptr %15, align 8
  %42 = load i64, ptr %16, align 8
  %43 = call noalias ptr @g_malloc_n(i64 noundef %41, i64 noundef %42) #16
  store ptr %43, ptr %17, align 8
  br label %44

44:                                               ; preds = %40, %35
  br label %45

45:                                               ; preds = %44, %21
  %46 = load ptr, ptr %17, align 8
  store ptr %46, ptr %18, align 8
  call void @llvm.lifetime.end.p0(i64 8, ptr %17) #13
  call void @llvm.lifetime.end.p0(i64 8, ptr %16) #13
  call void @llvm.lifetime.end.p0(i64 8, ptr %15) #13
  %47 = load ptr, ptr %18, align 8
  store ptr %47, ptr %14, align 8
  %48 = load ptr, ptr %14, align 8
  %49 = getelementptr inbounds nuw %struct.iseries_t, ptr %48, i32 0, i32 0
  store i8 0, ptr %49, align 4
  %50 = load i32, ptr %8, align 4
  %51 = load ptr, ptr %14, align 8
  %52 = getelementptr inbounds nuw %struct.iseries_t, ptr %51, i32 0, i32 4
  store i32 %50, ptr %52, align 4
  store i32 0, ptr %10, align 4
  br label %53

53:                                               ; preds = %116, %45
  %54 = load i32, ptr %10, align 4
  %55 = icmp ult i32 %54, 100
  br i1 %55, label %56, label %119

56:                                               ; preds = %53
  %57 = getelementptr inbounds [270 x i8], ptr %12, i64 0, i64 0
  %58 = call ptr @memset.inline(ptr noundef %57, i32 noundef 0, i64 noundef 270) #13
  %59 = getelementptr inbounds [270 x i8], ptr %12, i64 0, i64 0
  %60 = load ptr, ptr %5, align 8
  %61 = getelementptr inbounds nuw %struct.wtap, ptr %60, i32 0, i32 0
  %62 = load ptr, ptr %61, align 8
  %63 = call ptr @file_gets(ptr noundef %59, i32 noundef 270, ptr noundef %62)
  %64 = icmp eq ptr %63, null
  br i1 %64, label %65, label %78

65:                                               ; preds = %56
  %66 = load ptr, ptr %5, align 8
  %67 = getelementptr inbounds nuw %struct.wtap, ptr %66, i32 0, i32 0
  %68 = load ptr, ptr %67, align 8
  %69 = load ptr, ptr %7, align 8
  %70 = call i32 @file_error(ptr noundef %68, ptr noundef %69)
  %71 = load ptr, ptr %6, align 8
  store i32 %70, ptr %71, align 4
  %72 = load ptr, ptr %6, align 8
  %73 = load i32, ptr %72, align 4
  %74 = icmp eq i32 %73, -12
  br i1 %74, label %75, label %77

75:                                               ; preds = %65
  %76 = load ptr, ptr %6, align 8
  store i32 0, ptr %76, align 4
  br label %77

77:                                               ; preds = %75, %65
  br label %119

78:                                               ; preds = %56
  %79 = load ptr, ptr %14, align 8
  %80 = getelementptr inbounds nuw %struct.iseries_t, ptr %79, i32 0, i32 4
  %81 = load i32, ptr %80, align 4
  %82 = icmp eq i32 %81, 2
  br i1 %82, label %83, label %86

83:                                               ; preds = %78
  %84 = getelementptr inbounds [270 x i8], ptr %12, i64 0, i64 0
  %85 = call i32 @iseries_UNICODE_to_ASCII(ptr noundef %84, i32 noundef 270)
  br label %86

86:                                               ; preds = %83, %78
  %87 = getelementptr inbounds [270 x i8], ptr %12, i64 0, i64 0
  %88 = call ptr @ascii_strup_inplace(ptr noundef %87)
  %89 = getelementptr inbounds [270 x i8], ptr %12, i64 0, i64 0
  %90 = getelementptr inbounds [9 x i8], ptr %13, i64 0, i64 0
  %91 = call i32 (ptr, ptr, ...) @__isoc99_sscanf(ptr noundef %89, ptr noundef @.str.2, ptr noundef %90) #13
  store i32 %91, ptr %11, align 4
  %92 = load i32, ptr %11, align 4
  %93 = icmp eq i32 %92, 1
  br i1 %93, label %94, label %101

94:                                               ; preds = %86
  %95 = getelementptr inbounds [9 x i8], ptr %13, i64 0, i64 0
  %96 = call i32 @memcmp(ptr noundef %95, ptr noundef @.str.3, i64 noundef 8) #14
  %97 = icmp eq i32 %96, 0
  br i1 %97, label %98, label %100

98:                                               ; preds = %94
  %99 = load ptr, ptr %6, align 8
  store i32 0, ptr %99, align 4
  store i8 1, ptr %9, align 1
  br label %100

100:                                              ; preds = %98, %94
  br label %101

101:                                              ; preds = %100, %86
  %102 = getelementptr inbounds [270 x i8], ptr %12, i64 0, i64 0
  %103 = load ptr, ptr %14, align 8
  %104 = getelementptr inbounds nuw %struct.iseries_t, ptr %103, i32 0, i32 2
  %105 = load ptr, ptr %14, align 8
  %106 = getelementptr inbounds nuw %struct.iseries_t, ptr %105, i32 0, i32 3
  %107 = load ptr, ptr %14, align 8
  %108 = getelementptr inbounds nuw %struct.iseries_t, ptr %107, i32 0, i32 1
  %109 = call i32 (ptr, ptr, ...) @__isoc99_sscanf(ptr noundef %102, ptr noundef @.str.4, ptr noundef %104, ptr noundef %106, ptr noundef %108) #13
  store i32 %109, ptr %11, align 4
  %110 = load i32, ptr %11, align 4
  %111 = icmp eq i32 %110, 3
  br i1 %111, label %112, label %115

112:                                              ; preds = %101
  %113 = load ptr, ptr %14, align 8
  %114 = getelementptr inbounds nuw %struct.iseries_t, ptr %113, i32 0, i32 0
  store i8 1, ptr %114, align 4
  br label %115

115:                                              ; preds = %112, %101
  br label %116

116:                                              ; preds = %115
  %117 = load i32, ptr %10, align 4
  %118 = add i32 %117, 1
  store i32 %118, ptr %10, align 4
  br label %53, !llvm.loop !9

119:                                              ; preds = %77, %53
  %120 = load i8, ptr %9, align 1, !range !10, !noundef !11
  %121 = trunc i8 %120 to i1
  br i1 %121, label %122, label %126

122:                                              ; preds = %119
  %123 = load ptr, ptr %14, align 8
  %124 = load ptr, ptr %5, align 8
  %125 = getelementptr inbounds nuw %struct.wtap, ptr %124, i32 0, i32 13
  store ptr %123, ptr %125, align 8
  br label %128

126:                                              ; preds = %119
  %127 = load ptr, ptr %14, align 8
  call void @g_free(ptr noundef %127)
  br label %128

128:                                              ; preds = %126, %122
  %129 = load i8, ptr %9, align 1, !range !10, !noundef !11
  %130 = trunc i8 %129 to i1
  call void @llvm.lifetime.end.p0(i64 8, ptr %14) #13
  call void @llvm.lifetime.end.p0(i64 9, ptr %13) #13
  call void @llvm.lifetime.end.p0(i64 270, ptr %12) #13
  call void @llvm.lifetime.end.p0(i64 4, ptr %11) #13
  call void @llvm.lifetime.end.p0(i64 4, ptr %10) #13
  call void @llvm.lifetime.end.p0(i64 1, ptr %9) #13
  ret i1 %130
}