; Function Attrs: null_pointer_is_valid sspstrong uwtable
define internal fastcc noundef zeroext i1 @iseries_check_file_type(ptr noundef captures(none) %0, ptr noundef writeonly captures(none) %1, ptr noundef %2, i32 noundef range(i32 1, 3) %3) unnamed_addr #0 {
  %5 = alloca [270 x i8], align 16
  %6 = alloca [9 x i8], align 1
  call void @llvm.lifetime.start.p0(i64 270, ptr nonnull %5) #13
  call void @llvm.lifetime.start.p0(i64 9, ptr nonnull %6) #13
  %7 = tail call noalias dereferenceable_or_null(20) ptr @g_malloc(i64 noundef 20) #14
  store i8 0, ptr %7, align 4
  %8 = getelementptr inbounds nuw i8, ptr %7, i64 16
  store i32 %3, ptr %8, align 4
  %9 = getelementptr inbounds nuw i8, ptr %7, i64 8
  %10 = getelementptr inbounds nuw i8, ptr %7, i64 12
  %11 = getelementptr inbounds nuw i8, ptr %7, i64 4
  br label %12

12:                                               ; preds = %4, %39
  %.040 = phi i1 [ false, %4 ], [ %.1, %39 ]
  %.03639 = phi i32 [ 0, %4 ], [ %40, %39 ]
  call void @llvm.memset.p0.i64(ptr noundef nonnull align 16 dereferenceable(270) %5, i8 noundef 0, i64 noundef 270, i1 noundef false) #13
  %13 = load ptr, ptr %0, align 8
  %14 = call ptr @file_gets(ptr noundef nonnull %5, i32 noundef 270, ptr noundef %13)
  %15 = icmp eq ptr %14, null
  br i1 %15, label %16, label %20

16:                                               ; preds = %12
  %17 = load ptr, ptr %0, align 8
  %18 = call i32 @file_error(ptr noundef %17, ptr noundef %2)
  %19 = icmp eq i32 %18, -12
  %spec.store.select = select i1 %19, i32 0, i32 %18
  store i32 %spec.store.select, ptr %1, align 4
  br i1 %.040, label %41, label %43

20:                                               ; preds = %12
  %21 = load i32, ptr %8, align 4
  %22 = icmp eq i32 %21, 2
  br i1 %22, label %.preheader, label %28

.preheader:                                       ; preds = %20, %.thread.i
  %indvars.iv.i = phi i64 [ %indvars.iv.next.i, %.thread.i ], [ 0, %20 ]
  %.017.i = phi ptr [ %.115.i, %.thread.i ], [ %5, %20 ]
  %23 = getelementptr i8, ptr %5, i64 %indvars.iv.i
  %24 = load i8, ptr %23, align 1
  switch i8 %24, label %25 [
    i8 -2, label %.thread.i
    i8 -1, label %.thread.i
    i8 0, label %.thread.i
  ]

25:                                               ; preds = %.preheader
  store i8 %24, ptr %.017.i, align 1
  %26 = getelementptr i8, ptr %.017.i, i64 1
  %.pr.i = load i8, ptr %23, align 1
  %27 = icmp eq i8 %.pr.i, 10
  br i1 %27, label %iseries_UNICODE_to_ASCII.exit, label %.thread.i

.thread.i:                                        ; preds = %25, %.preheader, %.preheader, %.preheader
  %.115.i = phi ptr [ %26, %25 ], [ %.017.i, %.preheader ], [ %.017.i, %.preheader ], [ %.017.i, %.preheader ]
  %indvars.iv.next.i = add nuw nsw i64 %indvars.iv.i, 1
  %exitcond.not.i = icmp eq i64 %indvars.iv.next.i, 270
  br i1 %exitcond.not.i, label %iseries_UNICODE_to_ASCII.exit, label %.preheader, !llvm.loop !9

iseries_UNICODE_to_ASCII.exit:                    ; preds = %25, %.thread.i
  %.2.i = phi ptr [ %.115.i, %.thread.i ], [ %26, %25 ]
  store i8 0, ptr %.2.i, align 1
  br label %28

28:                                               ; preds = %iseries_UNICODE_to_ASCII.exit, %20
  %29 = call ptr @ascii_strup_inplace(ptr noundef nonnull %5)
  %30 = call i32 (ptr, ptr, ...) @__isoc99_sscanf(ptr noundef nonnull %5, ptr noundef nonnull @.str.2, ptr noundef nonnull %6) #13
  %31 = icmp eq i32 %30, 1
  br i1 %31, label %32, label %35

32:                                               ; preds = %28
  %bcmp = call i32 @bcmp(ptr noundef nonnull dereferenceable(8) %6, ptr noundef nonnull dereferenceable(8) @.str.3, i64 8)
  %33 = icmp eq i32 %bcmp, 0
  br i1 %33, label %34, label %35

34:                                               ; preds = %32
  store i32 0, ptr %1, align 4
  br label %35

35:                                               ; preds = %32, %34, %28
  %.1 = phi i1 [ true, %34 ], [ %.040, %32 ], [ %.040, %28 ]
  %36 = call i32 (ptr, ptr, ...) @__isoc99_sscanf(ptr noundef nonnull %5, ptr noundef nonnull @.str.4, ptr noundef nonnull %9, ptr noundef nonnull %10, ptr noundef nonnull %11) #13
  %37 = icmp eq i32 %36, 3
  br i1 %37, label %38, label %39

38:                                               ; preds = %35
  store i8 1, ptr %7, align 4
  br label %39

39:                                               ; preds = %35, %38
  %40 = add nuw nsw i32 %.03639, 1
  %exitcond.not = icmp eq i32 %40, 100
  br i1 %exitcond.not, label %.loopexit, label %12, !llvm.loop !10

.loopexit:                                        ; preds = %39
  br i1 %.1, label %41, label %43

41:                                               ; preds = %16, %.loopexit
  %42 = getelementptr inbounds nuw i8, ptr %0, i64 96
  store ptr %7, ptr %42, align 8
  br label %44

43:                                               ; preds = %16, %.loopexit
  call void @g_free(ptr noundef %7)
  br label %44

44:                                               ; preds = %43, %41
  %.03842 = phi i1 [ false, %43 ], [ true, %41 ]
  call void @llvm.lifetime.end.p0(i64 9, ptr nonnull %6) #13
  call void @llvm.lifetime.end.p0(i64 270, ptr nonnull %5) #13
  ret i1 %.03842
}